; Function Attrs: nounwind uwtable
define internal i32 @LZ4F_compressBlock(ptr noundef %0, ptr noundef %1, ptr noundef %2, i32 noundef %3, i32 noundef %4, i32 noundef %5, ptr noundef readonly captures(address_is_null) %6) unnamed_addr #5 {
  %8 = icmp slt i32 %5, 0
  %9 = sub i32 1, %5
  %10 = select i1 %8, i32 %9, i32 1
  %11 = icmp slt i32 %5, 2
  br i1 %11, label %12, label %16

12:                                               ; preds = %7
  %.not = icmp eq ptr %6, null
  br i1 %.not, label %21, label %13

13:                                               ; preds = %12
  tail call void @LZ4_resetStream_fast(ptr noundef %0) #13
  %14 = getelementptr inbounds nuw i8, ptr %6, i64 40
  %15 = load ptr, ptr %14, align 8, !tbaa !48
  tail call void @LZ4_attach_dictionary(ptr noundef %0, ptr noundef %15) #13
  br label %LZ4F_initStream.exit

16:                                               ; preds = %7
  tail call void @LZ4_resetStreamHC_fast(ptr noundef %0, i32 noundef %5) #13
  %.not.i = icmp eq ptr %6, null
  br i1 %.not.i, label %21, label %17

17:                                               ; preds = %16
  %18 = getelementptr inbounds nuw i8, ptr %6, i64 48
  %19 = load ptr, ptr %18, align 8, !tbaa !49
  tail call void @LZ4_attach_HC_dictionary(ptr noundef %0, ptr noundef %19) #13
  br label %LZ4F_initStream.exit

LZ4F_initStream.exit:                             ; preds = %17, %13
  %20 = tail call i32 @LZ4_compress_fast_continue(ptr noundef %0, ptr noundef %1, ptr noundef %2, i32 noundef %3, i32 noundef %4, i32 noundef %10) #13
  br label %23

21:                                               ; preds = %12, %16
  %22 = tail call i32 @LZ4_compress_fast_extState_fastReset(ptr noundef %0, ptr noundef %1, ptr noundef %2, i32 noundef %3, i32 noundef %4, i32 noundef %10) #13
  br label %23

23:                                               ; preds = %21, %LZ4F_initStream.exit
  %.0 = phi i32 [ %20, %LZ4F_initStream.exit ], [ %22, %21 ]
  ret i32 %.0
}